target datalayout = "e-m:e-p270:32:32-p271:32:32-p272:64:64-i64:64-i128:128-f80:128-n8:16:32:64-S128"
target triple = "x86_64-pc-linux-gnu"

%struct._object = type { %union.anon, ptr }
%union.anon = type { i64 }
%struct.pysqlite_Connection = type { %struct._object, ptr, ptr, i32, ptr, i32, i32, i32, i64, ptr, ptr, ptr, i32, ptr, ptr, ptr, ptr, ptr, ptr, ptr, ptr, ptr, ptr, ptr, ptr, ptr, ptr, ptr }
%struct.pysqlite_Blob = type { %struct._object, ptr, ptr, i32, ptr }
%struct.pysqlite_state = type { ptr, ptr, ptr, ptr, ptr, ptr, ptr, ptr, ptr, ptr, ptr, ptr, ptr, i32, i32, ptr, ptr, ptr, ptr, ptr, ptr, ptr, ptr, ptr, ptr, ptr, ptr, ptr, ptr }
%struct.Py_buffer = type { ptr, ptr, i64, i64, i32, i32, ptr, ptr, ptr, ptr, ptr }

@_Py_NoneStruct = external global %struct._object, align 8
@.str.11 = private unnamed_addr constant [33 x i8] c"Cannot operate on a closed blob.\00", align 1
@PyExc_ValueError = external global ptr, align 8
@.str.15 = private unnamed_addr constant [29 x i8] c"data longer than blob length\00", align 1

; Function Attrs: nounwind uwtable
define internal void @blob_seterror(ptr noundef %0, i32 noundef %1) #0 {
  %3 = alloca ptr, align 8
  %4 = alloca i32, align 4
  store ptr %0, ptr %3, align 8, !tbaa !3
  store i32 %1, ptr %4, align 4, !tbaa !44
  %5 = load ptr, ptr %3, align 8, !tbaa !3
  %6 = getelementptr inbounds nuw %struct.pysqlite_Blob, ptr %5, i32 0, i32 1
  %7 = load ptr, ptr %6, align 8, !tbaa !45
  %8 = getelementptr inbounds nuw %struct.pysqlite_Connection, ptr %7, i32 0, i32 2
  %9 = load ptr, ptr %8, align 8, !tbaa !51
  %10 = load ptr, ptr %3, align 8, !tbaa !3
  %11 = getelementptr inbounds nuw %struct.pysqlite_Blob, ptr %10, i32 0, i32 1
  %12 = load ptr, ptr %11, align 8, !tbaa !45
  %13 = getelementptr inbounds nuw %struct.pysqlite_Connection, ptr %12, i32 0, i32 1
  %14 = load ptr, ptr %13, align 8, !tbaa !55
  %15 = call i32 @_pysqlite_seterror(ptr noundef %9, ptr noundef %14)
  ret void
}

; Function Attrs: nounwind uwtable
define internal i32 @inner_write(ptr noundef %0, ptr noundef %1, i64 noundef %2, i64 noundef %3) #0 {
  %5 = alloca i32, align 4
  %6 = alloca ptr, align 8
  %7 = alloca ptr, align 8
  %8 = alloca i64, align 8
  %9 = alloca i64, align 8
  %10 = alloca i64, align 8
  %11 = alloca i64, align 8
  %12 = alloca i32, align 4
  %13 = alloca i32, align 4
  %14 = alloca ptr, align 8
  store ptr %0, ptr %6, align 8, !tbaa !3
  store ptr %1, ptr %7, align 8, !tbaa !3
  store i64 %2, ptr %8, align 8, !tbaa !7
  store i64 %3, ptr %9, align 8, !tbaa !7
  call void @llvm.lifetime.start.p0(i64 8, ptr %10) #6
  %15 = load ptr, ptr %6, align 8, !tbaa !3
  %16 = getelementptr inbounds nuw %struct.pysqlite_Blob, ptr %15, i32 0, i32 2
  %17 = load ptr, ptr %16, align 8, !tbaa !25
  %18 = call i32 @sqlite3_blob_bytes(ptr noundef %17)
  %19 = sext i32 %18 to i64
  store i64 %19, ptr %10, align 8, !tbaa !7
  call void @llvm.lifetime.start.p0(i64 8, ptr %11) #6
  %20 = load i64, ptr %10, align 8, !tbaa !7
  %21 = load i64, ptr %9, align 8, !tbaa !7
  %22 = sub i64 %20, %21
  store i64 %22, ptr %11, align 8, !tbaa !7
  %23 = load i64, ptr %8, align 8, !tbaa !7
  %24 = load i64, ptr %11, align 8, !tbaa !7
  %25 = icmp sgt i64 %23, %24
  br i1 %25, label %26, label %28

26:                                               ; preds = %4
  %27 = load ptr, ptr @PyExc_ValueError, align 8, !tbaa !22
  call void @PyErr_SetString(ptr noundef %27, ptr noundef @.str.15)
  store i32 -1, ptr %5, align 4
  store i32 1, ptr %12, align 4
  br label %47

28:                                               ; preds = %4
  call void @llvm.lifetime.start.p0(i64 4, ptr %13) #6
  call void @llvm.lifetime.start.p0(i64 8, ptr %14) #6
  %29 = call ptr @PyEval_SaveThread()
  store ptr %29, ptr %14, align 8, !tbaa !29
  %30 = load ptr, ptr %6, align 8, !tbaa !3
  %31 = getelementptr inbounds nuw %struct.pysqlite_Blob, ptr %30, i32 0, i32 2
  %32 = load ptr, ptr %31, align 8, !tbaa !25
  %33 = load ptr, ptr %7, align 8, !tbaa !3
  %34 = load i64, ptr %8, align 8, !tbaa !7
  %35 = trunc i64 %34 to i32
  %36 = load i64, ptr %9, align 8, !tbaa !7
  %37 = trunc i64 %36 to i32
  %38 = call i32 @sqlite3_blob_write(ptr noundef %32, ptr noundef %33, i32 noundef %35, i32 noundef %37)
  store i32 %38, ptr %13, align 4, !tbaa !44
  %39 = load ptr, ptr %14, align 8, !tbaa !29
  call void @PyEval_RestoreThread(ptr noundef %39)
  call void @llvm.lifetime.end.p0(i64 8, ptr %14) #6
  %40 = load i32, ptr %13, align 4, !tbaa !44
  %41 = icmp ne i32 %40, 0
  br i1 %41, label %42, label %45

42:                                               ; preds = %28
  %43 = load ptr, ptr %6, align 8, !tbaa !3
  %44 = load i32, ptr %13, align 4, !tbaa !44
  call void @blob_seterror(ptr noundef %43, i32 noundef %44)
  store i32 -1, ptr %5, align 4
  store i32 1, ptr %12, align 4
  br label %46

45:                                               ; preds = %28
  store i32 0, ptr %5, align 4
  store i32 1, ptr %12, align 4
  br label %46

46:                                               ; preds = %45, %42
  call void @llvm.lifetime.end.p0(i64 4, ptr %13) #6
  br label %47

47:                                               ; preds = %46, %26
  call void @llvm.lifetime.end.p0(i64 8, ptr %11) #6
  call void @llvm.lifetime.end.p0(i64 8, ptr %10) #6
  %48 = load i32, ptr %5, align 4
  ret i32 %48
}

; Function Attrs: nounwind uwtable
define internal i32 @check_blob(ptr noundef %0) #0 {
  %2 = alloca i32, align 4
  %3 = alloca ptr, align 8
  %4 = alloca ptr, align 8
  store ptr %0, ptr %3, align 8, !tbaa !3
  %5 = load ptr, ptr %3, align 8, !tbaa !3
  %6 = getelementptr inbounds nuw %struct.pysqlite_Blob, ptr %5, i32 0, i32 1
  %7 = load ptr, ptr %6, align 8, !tbaa !45
  %8 = call i32 @pysqlite_check_connection(ptr noundef %7)
  %9 = icmp ne i32 %8, 0
  br i1 %9, label %10, label %16

10:                                               ; preds = %1
  %11 = load ptr, ptr %3, align 8, !tbaa !3
  %12 = getelementptr inbounds nuw %struct.pysqlite_Blob, ptr %11, i32 0, i32 1
  %13 = load ptr, ptr %12, align 8, !tbaa !45
  %14 = call i32 @pysqlite_check_thread(ptr noundef %13)
  %15 = icmp ne i32 %14, 0
  br i1 %15, label %17, label %16

16:                                               ; preds = %10, %1
  store i32 0, ptr %2, align 4
  br label %32

17:                                               ; preds = %10
  %18 = load ptr, ptr %3, align 8, !tbaa !3
  %19 = getelementptr inbounds nuw %struct.pysqlite_Blob, ptr %18, i32 0, i32 2
  %20 = load ptr, ptr %19, align 8, !tbaa !25
  %21 = icmp eq ptr %20, null
  br i1 %21, label %22, label %31

22:                                               ; preds = %17
  call void @llvm.lifetime.start.p0(i64 8, ptr %4) #6
  %23 = load ptr, ptr %3, align 8, !tbaa !3
  %24 = getelementptr inbounds nuw %struct.pysqlite_Blob, ptr %23, i32 0, i32 1
  %25 = load ptr, ptr %24, align 8, !tbaa !45
  %26 = getelementptr inbounds nuw %struct.pysqlite_Connection, ptr %25, i32 0, i32 2
  %27 = load ptr, ptr %26, align 8, !tbaa !51
  store ptr %27, ptr %4, align 8, !tbaa !3
  %28 = load ptr, ptr %4, align 8, !tbaa !3
  %29 = getelementptr inbounds nuw %struct.pysqlite_state, ptr %28, i32 0, i32 8
  %30 = load ptr, ptr %29, align 8, !tbaa !52
  call void @PyErr_SetString(ptr noundef %30, ptr noundef @.str.11)
  store i32 0, ptr %2, align 4
  call void @llvm.lifetime.end.p0(i64 8, ptr %4) #6
  br label %32

31:                                               ; preds = %17
  store i32 1, ptr %2, align 4
  br label %32

32:                                               ; preds = %31, %22, %16
  %33 = load i32, ptr %2, align 4
  ret i32 %33
}

; Function Attrs: nounwind uwtable
define internal ptr @blob_write_impl(ptr noundef %0, ptr noundef %1) #0 {
  %3 = alloca ptr, align 8
  %4 = alloca ptr, align 8
  %5 = alloca ptr, align 8
  %6 = alloca i32, align 4
  %7 = alloca i32, align 4
  store ptr %0, ptr %4, align 8, !tbaa !3
  store ptr %1, ptr %5, align 8, !tbaa !3
  %8 = load ptr, ptr %4, align 8, !tbaa !3
  %9 = call i32 @check_blob(ptr noundef %8)
  %10 = icmp ne i32 %9, 0
  br i1 %10, label %12, label %11

11:                                               ; preds = %2
  store ptr null, ptr %3, align 8
  br label %38

12:                                               ; preds = %2
  call void @llvm.lifetime.start.p0(i64 4, ptr %6) #6
  %13 = load ptr, ptr %4, align 8, !tbaa !3
  %14 = load ptr, ptr %5, align 8, !tbaa !3
  %15 = getelementptr inbounds nuw %struct.Py_buffer, ptr %14, i32 0, i32 0
  %16 = load ptr, ptr %15, align 8, !tbaa !56
  %17 = load ptr, ptr %5, align 8, !tbaa !3
  %18 = getelementptr inbounds nuw %struct.Py_buffer, ptr %17, i32 0, i32 2
  %19 = load i64, ptr %18, align 8, !tbaa !57
  %20 = load ptr, ptr %4, align 8, !tbaa !3
  %21 = getelementptr inbounds nuw %struct.pysqlite_Blob, ptr %20, i32 0, i32 3
  %22 = load i32, ptr %21, align 8, !tbaa !53
  %23 = sext i32 %22 to i64
  %24 = call i32 @inner_write(ptr noundef %13, ptr noundef %16, i64 noundef %19, i64 noundef %23)
  store i32 %24, ptr %6, align 4, !tbaa !44
  %25 = load i32, ptr %6, align 4, !tbaa !44
  %26 = icmp slt i32 %25, 0
  br i1 %26, label %27, label %28

27:                                               ; preds = %12
  store ptr null, ptr %3, align 8
  store i32 1, ptr %7, align 4
  br label %37

28:                                               ; preds = %12
  %29 = load ptr, ptr %5, align 8, !tbaa !3
  %30 = getelementptr inbounds nuw %struct.Py_buffer, ptr %29, i32 0, i32 2
  %31 = load i64, ptr %30, align 8, !tbaa !57
  %32 = trunc i64 %31 to i32
  %33 = load ptr, ptr %4, align 8, !tbaa !3
  %34 = getelementptr inbounds nuw %struct.pysqlite_Blob, ptr %33, i32 0, i32 3
  %35 = load i32, ptr %34, align 8, !tbaa !53
  %36 = add i32 %35, %32
  store i32 %36, ptr %34, align 8, !tbaa !53
  store ptr @_Py_NoneStruct, ptr %3, align 8
  store i32 1, ptr %7, align 4
  br label %37

37:                                               ; preds = %28, %27
  call void @llvm.lifetime.end.p0(i64 4, ptr %6) #6
  br label %38

38:                                               ; preds = %37, %11
  %39 = load ptr, ptr %3, align 8
  ret ptr %39
}

; Function Attrs: nounwind uwtable
define internal ptr @blob_write(ptr noundef %0, ptr noundef %1) #0 {
  %3 = alloca ptr, align 8
  %4 = alloca ptr, align 8
  %5 = alloca ptr, align 8
  %6 = alloca %struct.Py_buffer, align 8
  store ptr %0, ptr %3, align 8, !tbaa !22
  store ptr %1, ptr %4, align 8, !tbaa !22
  call void @llvm.lifetime.start.p0(i64 8, ptr %5) #6
  store ptr null, ptr %5, align 8, !tbaa !22
  call void @llvm.lifetime.start.p0(i64 80, ptr %6) #6
  call void @llvm.memset.p0.i64(ptr align 8 %6, i8 0, i64 80, i1 false)
  %7 = load ptr, ptr %4, align 8, !tbaa !22
  %8 = call i32 @PyObject_GetBuffer(ptr noundef %7, ptr noundef %6, i32 noundef 0)
  %9 = icmp ne i32 %8, 0
  br i1 %9, label %10, label %11

10:                                               ; preds = %2
  br label %14

11:                                               ; preds = %2
  %12 = load ptr, ptr %3, align 8, !tbaa !22
  %13 = call ptr @blob_write_impl(ptr noundef %12, ptr noundef %6)
  store ptr %13, ptr %5, align 8, !tbaa !22
  br label %14

14:                                               ; preds = %11, %10
  %15 = getelementptr inbounds nuw %struct.Py_buffer, ptr %6, i32 0, i32 1
  %16 = load ptr, ptr %15, align 8, !tbaa !48
  %17 = icmp ne ptr %16, null
  br i1 %17, label %18, label %19

18:                                               ; preds = %14
  call void @PyBuffer_Release(ptr noundef %6)
  br label %19

19:                                               ; preds = %18, %14
  %20 = load ptr, ptr %5, align 8, !tbaa !22
  call void @llvm.lifetime.end.p0(i64 80, ptr %6) #6
  call void @llvm.lifetime.end.p0(i64 8, ptr %5) #6
  ret ptr %20
}