; Function Attrs: nounwind uwtable
define internal noundef ptr @blob_write(ptr noundef captures(none) %0, ptr noundef %1) #0 {
  %3 = alloca %struct.Py_buffer, align 8
  call void @llvm.lifetime.start.p0(i64 80, ptr nonnull %3) #5
  call void @llvm.memset.p0.i64(ptr noundef nonnull align 8 dereferenceable(80) %3, i8 0, i64 80, i1 false)
  %4 = call i32 @PyObject_GetBuffer(ptr noundef %1, ptr noundef nonnull %3, i32 noundef 0) #5
  %.not = icmp eq i32 %4, 0
  br i1 %.not, label %5, label %blob_write_impl.exit

5:                                                ; preds = %2
  %6 = getelementptr inbounds nuw i8, ptr %0, i64 16
  %7 = load ptr, ptr %6, align 8, !tbaa !39
  %8 = call i32 @pysqlite_check_connection(ptr noundef %7) #5
  %.not.i.i = icmp eq i32 %8, 0
  br i1 %.not.i.i, label %blob_write_impl.exit, label %9

9:                                                ; preds = %5
  %10 = load ptr, ptr %6, align 8, !tbaa !39
  %11 = call i32 @pysqlite_check_thread(ptr noundef %10) #5
  %.not5.i.i = icmp eq i32 %11, 0
  br i1 %.not5.i.i, label %blob_write_impl.exit, label %12

12:                                               ; preds = %9
  %13 = getelementptr inbounds nuw i8, ptr %0, i64 24
  %14 = load ptr, ptr %13, align 8, !tbaa !22
  %15 = icmp eq ptr %14, null
  br i1 %15, label %16, label %check_blob.exit.i

16:                                               ; preds = %12
  %17 = load ptr, ptr %6, align 8, !tbaa !39
  %18 = getelementptr inbounds nuw i8, ptr %17, i64 24
  %19 = load ptr, ptr %18, align 8, !tbaa !41
  %20 = getelementptr inbounds nuw i8, ptr %19, i64 64
  %21 = load ptr, ptr %20, align 8, !tbaa !42
  call void @PyErr_SetString(ptr noundef %21, ptr noundef nonnull @.str.11) #5
  br label %blob_write_impl.exit

check_blob.exit.i:                                ; preds = %12
  %22 = load ptr, ptr %3, align 8, !tbaa !51
  %23 = getelementptr inbounds nuw i8, ptr %3, i64 16
  %24 = load i64, ptr %23, align 8, !tbaa !48
  %25 = getelementptr inbounds nuw i8, ptr %0, i64 32
  %26 = load i32, ptr %25, align 8, !tbaa !53
  %27 = sext i32 %26 to i64
  %28 = call i32 @sqlite3_blob_bytes(ptr noundef nonnull %14) #5
  %29 = sext i32 %28 to i64
  %30 = sub nsw i64 %29, %27
  %31 = icmp sgt i64 %24, %30
  br i1 %31, label %32, label %34

32:                                               ; preds = %check_blob.exit.i
  %33 = load ptr, ptr @PyExc_ValueError, align 8, !tbaa !21
  call void @PyErr_SetString(ptr noundef %33, ptr noundef nonnull @.str.15) #5
  br label %blob_write_impl.exit

34:                                               ; preds = %check_blob.exit.i
  %35 = call ptr @PyEval_SaveThread() #5
  %36 = load ptr, ptr %13, align 8, !tbaa !22
  %37 = trunc i64 %24 to i32
  %38 = call i32 @sqlite3_blob_write(ptr noundef %36, ptr noundef %22, i32 noundef %37, i32 noundef %26) #5
  call void @PyEval_RestoreThread(ptr noundef %35) #5
  %.not.i8.i = icmp eq i32 %38, 0
  br i1 %.not.i8.i, label %inner_write.exit.i, label %39

39:                                               ; preds = %34
  %.val.i.i = load ptr, ptr %6, align 8, !tbaa !39
  %40 = getelementptr i8, ptr %.val.i.i, i64 16
  %.val.val.i.i = load ptr, ptr %40, align 8, !tbaa !43
  %41 = getelementptr i8, ptr %.val.i.i, i64 24
  %.val.val15.i.i = load ptr, ptr %41, align 8, !tbaa !41
  %42 = call i32 @_pysqlite_seterror(ptr noundef %.val.val15.i.i, ptr noundef %.val.val.i.i) #5
  br label %blob_write_impl.exit

inner_write.exit.i:                               ; preds = %34
  %43 = load i64, ptr %23, align 8, !tbaa !48
  %44 = trunc i64 %43 to i32
  %45 = load i32, ptr %25, align 8, !tbaa !53
  %46 = add i32 %45, %44
  store i32 %46, ptr %25, align 8, !tbaa !53
  br label %blob_write_impl.exit

blob_write_impl.exit:                             ; preds = %inner_write.exit.i, %39, %32, %16, %9, %5, %2
  %.0 = phi ptr [ null, %2 ], [ @_Py_NoneStruct, %inner_write.exit.i ], [ null, %16 ], [ null, %9 ], [ null, %5 ], [ null, %32 ], [ null, %39 ]
  %47 = getelementptr inbounds nuw i8, ptr %3, i64 8
  %48 = load ptr, ptr %47, align 8, !tbaa !54
  %.not3 = icmp eq ptr %48, null
  br i1 %.not3, label %50, label %49

49:                                               ; preds = %blob_write_impl.exit
  call void @PyBuffer_Release(ptr noundef nonnull %3) #5
  br label %50

50:                                               ; preds = %49, %blob_write_impl.exit
  call void @llvm.lifetime.end.p0(i64 80, ptr nonnull %3) #5
  ret ptr %.0
}